; Function Attrs: mustprogress uwtable
define hidden noundef ptr @_ZN7datalog19sparse_table_plugin13mk_project_fnERKNS_10table_baseEjPKj(ptr nocapture nonnull readnone align 8 %this, ptr noundef nonnull align 8 dereferenceable(36) %t, i32 noundef %col_cnt, ptr noundef %removed_cols) unnamed_addr #3 align 2 {
entry:
  %m_signature.i = getelementptr inbounds i8, ptr %t, i64 16
  %0 = load ptr, ptr %m_signature.i, align 8
  %cmp.i = icmp eq ptr %0, null
  br i1 %cmp.i, label %_ZNK6vectorImLb0EjE4sizeEv.exit, label %if.end.i

if.end.i:                                         ; preds = %entry
  %arrayidx.i = getelementptr inbounds i8, ptr %0, i64 -4
  %1 = load i32, ptr %arrayidx.i, align 4
  br label %_ZNK6vectorImLb0EjE4sizeEv.exit

_ZNK6vectorImLb0EjE4sizeEv.exit:                  ; preds = %entry, %if.end.i
  %retval.0.i = phi i32 [ %1, %if.end.i ], [ 0, %entry ]
  %cmp = icmp eq i32 %retval.0.i, %col_cnt
  br i1 %cmp, label %return, label %if.end

if.end:                                           ; preds = %_ZNK6vectorImLb0EjE4sizeEv.exit
  %call3 = tail call noalias noundef ptr @_ZN6memory8allocateEm(i64 noundef 48)
  tail call void @_ZN7datalog19sparse_table_plugin10project_fnC2ERKNS_15table_signatureEjPKj(ptr noundef nonnull align 8 dereferenceable(44) %call3, ptr noundef nonnull align 8 dereferenceable(12) %m_signature.i, i32 noundef %col_cnt, ptr noundef %removed_cols)
  br label %return

return:                                           ; preds = %_ZNK6vectorImLb0EjE4sizeEv.exit, %if.end
  %retval.0 = phi ptr [ %call3, %if.end ], [ null, %_ZNK6vectorImLb0EjE4sizeEv.exit ]
  ret ptr %retval.0
}